; Function Attrs: mustprogress uwtable
define internal void @"_ZNSt17_Function_handlerIFN7rocksdb6StatusERNS0_17CompactionOutputsERKS1_RKNS0_5SliceEEZNS0_13CompactionJob25ProcessKeyValueCompactionEPNS0_18SubcompactionStateEE3$_1E9_M_invokeERKSt9_Any_dataS3_S5_S8_"(ptr noalias sret(%"class.rocksdb::Status") align 8 %agg.result, ptr nocapture noundef nonnull readonly align 8 dereferenceable(16) %__functor, ptr noundef nonnull align 8 dereferenceable(328) %__args, ptr noundef nonnull align 8 dereferenceable(16) %__args1, ptr noundef nonnull align 8 dereferenceable(16) %__args3) #5 align 2 {
entry:
  %__functor.val = load ptr, ptr %__functor, align 8
  %0 = load ptr, ptr %__functor.val, align 8, !noalias !214
  %1 = getelementptr inbounds i8, ptr %__functor.val, i64 8
  %2 = load ptr, ptr %1, align 8, !noalias !214
  %_M_engaged.i.i.i.i.i = getelementptr inbounds i8, ptr %2, i64 24
  %3 = load i8, ptr %_M_engaged.i.i.i.i.i, align 8, !noalias !214
  %4 = and i8 %3, 1
  %tobool.i.i.not.i.i.i = icmp eq i8 %4, 0
  %5 = getelementptr inbounds i8, ptr %__functor.val, i64 16
  %cond.i.i.i = select i1 %tobool.i.i.not.i.i.i, ptr null, ptr %5
  %_M_engaged.i.i1.i.i.i = getelementptr inbounds i8, ptr %2, i64 48
  %6 = load i8, ptr %_M_engaged.i.i1.i.i.i, align 8, !noalias !214
  %7 = and i8 %6, 1
  %tobool.i.i2.not.i.i.i = icmp eq i8 %7, 0
  %8 = getelementptr inbounds i8, ptr %__functor.val, i64 32
  %cond6.i.i.i = select i1 %tobool.i.i2.not.i.i.i, ptr null, ptr %8
  tail call void @_ZN7rocksdb13CompactionJob26FinishCompactionOutputFileERKNS_6StatusEPNS_18SubcompactionStateERNS_17CompactionOutputsERKNS_5SliceEPS9_SB_(ptr sret(%"class.rocksdb::Status") align 8 %agg.result, ptr noundef nonnull align 8 dereferenceable(1456) %0, ptr noundef nonnull align 8 dereferenceable(16) %__args1, ptr noundef %2, ptr noundef nonnull align 8 dereferenceable(328) %__args, ptr noundef nonnull align 8 dereferenceable(16) %__args3, ptr noundef %cond.i.i.i, ptr noundef %cond6.i.i.i)
  ret void
}